(lp1
(dp2
I1
F0.0051520707002623567
sa(dp3
I1
F0.088387232565764862
sa(dp4
I1
F0.061756737831274222
sa(dp5
I1
F0.057300387528130159
sa(dp6
I1
F0.068387232565783052
sa(dp7
I1
F0.042033862868208871
sa(dp8
I1
F0.097300387528321153
sa(dp9
I1
F0.057300387528130159
sa(dp10
I1
F0.76444097210264772
sa(dp11
I1
F-1412.1793310159146
sa(dp12
I1
F0.036555740487528965
sa(dp13
I1
F-125.33592849287061
sa(dp14
I1
F-125.33592849287061
sa(dp15
I1
F-0.0098063151591532005
sa(dp16
I1
F-0.076532533584455109
sa(dp17
I1
F-0.028653964728633241
sa(dp18
I1
F-0.025079897890108782
sa(dp19
I1
F-0.025079897890108782
sa(dp20
I1
F0.062843885773418151
sa(dp21
I1
F0.068387232565783052
sa(dp22
I1
F0.072843885773409056
sa(dp23
I1
F0.078387232565773957
sa(dp24
I1
F0.035020786395975279
sa(dp25
I1
F0.0064863041212674943
sa(dp26
I1
F0.029696054549830819
sa(dp27
I1
F-0.041398694681205939
sa(dp28
I1
F0.0013152028501650648
sa(dp29
I1
F-0.18208960294194299
sa(dp30
I1
F-0.025079897890108782
sa(dp31
I1
F0.047300387528139254
sa(dp32
I1
F-0.0026016320451844877
sa(dp33
I1
F0.057300387528130159
sa(dp34
I1
F0.062843885773418151
sa(dp35
I1
F0.032843885773445436
sa(dp36
I1
F0.082843885773399961
sa(dp37
I1
F0.072843885773409056
sa(dp38
I1
F0.078387232565773957
sa(dp39
I1
F0.062843885773418151
sa(dp40
I1
F0.057300387528130159
sa(dp41
I1
F0.057300387528130159
sa(dp42
I1
F0.082843885773399961
sa(dp43
I1
F0.10838723256574667
sa(dp44
I1
F0.062843885773418151
sa(dp45
I1
F0.082843885773399961
sa(dp46
I1
F0.057300387528130159
sa(dp47
I1
F0.077300387528111969
sa(dp48
I1
F0.088387232565764862
sa(dp49
I1
F0.078387232565773957
sa(dp50
I1
F0.088387232565764862
sa(dp51
I1
F0.062843885773418151
sa(dp52
I1
F0.082843885773399961
sa(dp53
I1
F-0.36599566106019665
sa(dp54
I1
F-0.70352693951008405
sa(dp55
I1
F0.036634783155122363
sa(dp56
I1
F0.088387232565764862
sa(dp57
I1
F0.082843885773399961
sa(dp58
I1
F0.088387232565764862
sa(dp59
I1
F0.082843885773399961
sa(dp60
I1
F0.062843885773418151
sa(dp61
I1
F0.0041961939306531804
sa(dp62
I1
F0.021925972128414628
sa(dp63
I1
F0.99315568397138065
sa(dp64
I1
F0.0068424557923663087
sa(dp65
I1
F0.03578690167076104
sa(dp66
I1
F0.0584226874183571
sa(dp67
I1
F-0.0003039454501703176
sa(dp68
I1
F0.65310651403788711
sa(dp69
I1
F0.065124880037956245
sa(dp70
I1
F0.089473471788323877
sa(dp71
I1
F0.062843885773418151
sa(dp72
I1
F0.050549715150964403
sa(dp73
I1
F0.068387232565783052
sa(dp74
I1
F0.072843885773409056
sa(dp75
I1
F-0.0010213182125369258
sa(dp76
I1
F0.051756737831055943
sa(dp77
I1
F0.052843885773427246
sa(dp78
I1
F0.057300387528130159
sa(dp79
I1
F0.067300387528121064
sa(dp80
I1
F0.076212936683305088
sa(dp81
I1
F0.081756737831256032
sa(dp82
I1
F0.088387232565764862
sa(dp83
I1
F0.087300387528330248
sa(dp84
I1
F0.056212936683323278
sa(dp85
I1
F0.088387232565764862
sa(dp86
I1
F0.073930427904315366
sa(dp87
I1
F0.057300387528130159
sa(dp88
I1
F0.063930427904324461
sa(dp89
I1
F0.036662157403725359
sa(dp90
I1
F0.049238369565728135
sa(dp91
I1
F0.077300387528111969
sa(dp92
I1
F0.067300387528121064
sa(dp93
I1
F0.10284388577338177
sa(dp94
I1
F0.082843885773399961
sa(dp95
I1
F0.051756737831055943
sa(dp96
I1
F0.052843885773427246
sa(dp97
I1
F0.0017567378311014181
sa(dp98
I1
F0.041756737831065038
sa(dp99
I1
F0.062843885773418151
sa(dp100
I1
F0.0087405857085798289
sa(dp101
I1
F0.068387232565783052
sa(dp102
I1
F0.037455929017141898
sa(dp103
I1
F0.030813971420911912
sa(dp104
I1
F0.057300387528130159
sa(dp105
I1
F-0.04990932832149042
sa(dp106
I1
F0.013522660765858063
sa(dp107
I1
F0.0031556839713857698
sa(dp108
I1
F0.00019815067219042248
sa(dp109
I1
F-0.027415819114466444
sa(dp110
I1
F-0.01386860257620981
sa(dp111
I1
F0.072843885773409056
sa(dp112
I1
F0.067300387528121064
sa(dp113
I1
F0.052843885773427246
sa(dp114
I1
F0.072843885773409056
sa(dp115
I1
F-0.0056323543497995843
sa(dp116
I1
F0.082843885773399961
sa(dp117
I1
F0.040177382400543138
sa(dp118
I1
F0.048387232565801241
sa(dp119
I1
F0.0021924823254266812
sa(dp120
I1
F-0.01953640741467666
sa(dp121
I1
F0.027410049753058274
sa(dp122
I1
F0.023360862161794671
sa(dp123
I1
F-0.083279205966320546
sa(dp124
I1
F-0.018264223943418756
sa(dp125
I1
F-0.0025899502469428626
sa(dp126
I1
F0.033766204257972277
sa(dp127
I1
F0.021444268641729991
sa(dp128
I1
F0.021444268641729991
sa(dp129
I1
F0.021444268641729991
sa(dp130
I1
F0.010369619072278624
sa(dp131
I1
F0.04209090435962537
sa(dp132
I1
F0.16240138515513536
sa(dp133
I1
F0.031756737831074133
sa(dp134
I1
F0.025851330024863728
sa(dp135
I1
F-2.2517867753253284
sa(dp136
I1
F-0.041251742468688235
sa(dp137
I1
F0.0081707630682359422
sa(dp138
I1
F0.083930427904306271
sa(dp139
I1
F-0.061898048537202044
sa(dp140
I1
F0.016674359844230935
sa(dp141
I1
F-0.15037824363508889
sa(dp142
I1
F-0.01953640741467666
sa(dp143
I1
F0.058387232565792146
sa(dp144
I1
F0.062843885773418151
sa(dp145
I1
F0.056212936683323278
sa(dp146
I1
F0.058387232565792146
sa(dp147
I1
F0.057300387528130159
sa(dp148
I1
F0.032728554495861317
sa(dp149
I1
F0.041756737831065038
sa(dp150
I1
F1.0733845843587915
sa(dp151
I1
F-51.29481173010322
sa(dp152
I1
F-1.3003244899441597
sa(dp153
I1
F0.021148636779230401
sa(dp154
I1
F0.0081794258486524996
sa(dp155
I1
F0.02817942584863431
sa(dp156
I1
F-0.040260224377448139
sa(dp157
I1
F0.001299380714272047
sa(dp158
I1
F0.031756737831074133
sa(dp159
I1
F0.082843885773399961
sa(dp160
I1
F0.041756737831065038
sa(dp161
I1
F-0.011273370798107862
sa(dp162
I1
F0.032303630295245966
sa(dp163
I1
F0.032303630295245966
sa(dp164
I1
F-0.024229204612638
sa(dp165
I1
F0.032303630295245966
sa(dp166
I1
F0.032303630295245966
sa(dp167
I1
F0.050513058242970033
sa(dp168
I1
F0.050513058242970033
sa(dp169
I1
F0.050513058242970033
sa(dp170
I1
F0.050513058242970033
sa(dp171
I1
F0.045316611313864996
sa(dp172
I1
F0.0047358714155052439
sa(dp173
I1
F-0.016367919247102236
sa(dp174
I1
F-0.042334306361212271
sa(dp175
I1
F0.031575489656418654
sa(dp176
I1
F-0.025079897890108782
sa(dp177
I1
F0.0026251985319447613
sa(dp178
I1
F-0.021223519130145974
sa(dp179
I1
F0.033766204257972277
sa(dp180
I1
F0.0065156350497801441
sa(dp181
I1
F0.037549264953952388
sa(dp182
I1
F-0.027013570855274338
sa(dp183
I1
F0.0047763335020931663
sa(dp184
I1
F0.057300387528130159
sa(dp185
I1
F0.082843885773399961
sa(dp186
I1
F0.048387232565801241
sa(dp187
I1
F0.057300387528130159
sa(dp188
I1
F0.072843885773409056
sa(dp189
I1
F0.062843885773418151
sa(dp190
I1
F0.10838723256574667
sa(dp191
I1
F0.057300387528130159
sa(dp192
I1
F0.082843885773399961
sa(dp193
I1
F-0.028047197314990058
sa(dp194
I1
F0.0065449173148550699
sa(dp195
I1
F0.0082709654110431075
sa(dp196
I1
F0.0034293532906559676
sa(dp197
I1
F-0.00058016500761937095
sa(dp198
I1
F-0.0017290345889620085
sa(dp199
I1
F0.005968836340301209
sa(dp200
I1
F0.010945987290170933
sa(dp201
I1
F-0.061409091985069608
sa(dp202
I1
F-0.061409091985069608
sa(dp203
I1
F0.051756737831055943
sa(dp204
I1
F0.077300387528111969
sa(dp205
I1
F0.031756737831074133
sa(dp206
I1
F0.031756737831074133
sa(dp207
I1
F0.061756737831274222
sa(dp208
I1
F0.077300387528111969
sa(dp209
I1
F0.057300387528130159
sa(dp210
I1
F0.067300387528121064
sa(dp211
I1
F0.18501636421683543
sa(dp212
I1
F0.048491659209503268
sa(dp213
I1
F-1299.9184615425834
sa(dp214
I1
F0.046212936683332373
sa(dp215
I1
F0.077300387528111969
sa(dp216
I1
F0.039177819479576215
sa(dp217
I1
F0.003172252927939212
sa(dp218
I1
F-0.045424226958843406
sa(dp219
I1
F0.078387232565773957
sa(dp220
I1
F-0.017156114226509089
sa(dp221
I1
F0.10838723256574667
sa(dp222
I1
F0.067300387528121064
sa(dp223
I1
F0.041756737831065038
sa(dp224
I1
F0.041945146034322534
sa(dp225
I1
F0.042843885773436341
sa(dp226
I1
F0.036212936683341468
sa(dp227
I1
F0.067300387528121064
sa(dp228
I1
F0.077300387528111969
sa(dp229
I1
F0.078387232565773957
sa(dp230
I1
F0.082843885773399961
sa(dp231
I1
F0.062843885773418151
sa(dp232
I1
F0.082843885773399961
sa(dp233
I1
F0.033159915057424882
sa(dp234
I1
F0.060137136381626988
sa(dp235
I1
F0.0079590477488125089
sa(dp236
I1
F0.01705155104211542
sa(dp237
I1
F0.0079590477488125089
sa(dp238
I1
F0.0070515510421245153
sa(dp239
I1
F-0.032494515569325699
sa(dp240
I1
F-0.01953640741467666
sa(dp241
I1
F-0.01953640741467666
sa(dp242
I1
F-0.01953640741467666
sa(dp243
I1
F-0.0061769346865503394
sa(dp244
I1
F-0.037740541828497953
sa(dp245
I1
F0.011991544436156687
sa(dp246
I1
F0.0049201021098923547
sa(dp247
I1
F0.068387232565783052
sa(dp248
I1
F0.072843885773409056
sa(dp249
I1
F-0.71907498092127753
sa(dp250
I1
F0.057300387528130159
sa(dp251
I1
F0.051756737831055943
sa(dp252
I1
F0.082843885773399961
sa(dp253
I1
F0.068387232565783052
sa(dp254
I1
F0.10838723256574667
sa(dp255
I1
F0.072843885773409056
sa(dp256
I1
F0.055832961684018301
sa(dp257
I1
F0.073930427904315366
sa(dp258
I1
F-0.17259791190531359
sa(dp259
I1
F0.068387232565783052
sa(dp260
I1
F0.062843885773418151
sa(dp261
I1
F0.047300387528139254
sa(dp262
I1
F0.088387232565764862
sa(dp263
I1
F0.052843885773427246
sa(dp264
I1
F0.039580624541940779
sa(dp265
I1
F0.052843885773427246
sa(dp266
I1
F0.051756737831055943
sa(dp267
I1
F0.011756737831092323
sa(dp268
I1
F0.047300387528139254
sa(dp269
I1
F0.058491659209494173
sa(dp270
I1
F0.078387232565773957
sa(dp271
I1
F0.082843885773399961
sa(dp272
I1
F0.031756737831074133
sa(dp273
I1
F0.068387232565783052
sa(dp274
I1
F0.068387232565783052
sa(dp275
I1
F0.047300387528139254
sa(dp276
I1
F0.04393042790434265
sa(dp277
I1
F0.047609991361355242
sa(dp278
I1
F0.068387232565783052
sa(dp279
I1
F0.067300387528121064
sa(dp280
I1
F0.082843885773399961
sa(dp281
I1
F0.057300387528130159
sa(dp282
I1
F0.082843885773399961
sa(dp283
I1
F0.057300387528130159
sa(dp284
I1
F0.067321342048899169
sa(dp285
I1
F-0.0053554148119019374
sa(dp286
I1
F-0.01652261904605723
sa(dp287
I1
F0.015579618825825037
sa(dp288
I1
F0.0030897412502923771
sa(dp289
I1
F0.0030897412502923771
sa(dp290
I1
F0.085016364216926377
sa(dp291
I1
F0.073930427904315366
sa(dp292
I1
F0.07066898408538691
sa(dp293
I1
F0.052089769878975289
sa(dp294
I1
F0.052089769878975289
sa(dp295
I1
F0.0020897698789781316
sa(dp296
I1
F0.028247251630105552
sa(dp297
I1
F0.0070621453184429583
sa(dp298
I1
F0.011950203595532116
sa(dp299
I1
F0.01275998031223935
sa(dp300
I1
F-0.025079897890108782
sa(dp301
I1
F-0.025079897890108782
sa(dp302
I1
F0.0074100497530622533
sa(dp303
I1
F0.061756737831274222
sa(dp304
I1
F-0.0025134048967316858
sa(dp305
I1
F-0.0047376970627226456
sa(dp306
I1
F-0.082737341044719415
sa(dp307
I1
F-0.11150834079057859
sa(dp308
I1
F0.078387232565773957
sa(dp309
I1
F0.078387232565773957
sa(dp310
I1
F0.078387232565773957
sa(dp311
I1
F0.078387232565773957
sa(dp312
I1
F0.057300387528130159
sa(dp313
I1
F0.057300387528130159
sa(dp314
I1
F0.082843885773399961
sa(dp315
I1
F0.082843885773399961
sa(dp316
I1
F0.062843885773418151
sa(dp317
I1
F0.067300387528121064
sa(dp318
I1
F0.093930427904297176
sa(dp319
I1
F0.057300387528130159
sa(dp320
I1
F0.092843885773390866
sa(dp321
I1
F0.066816580664863068
sa(dp322
I1
F0.03107863492391516
sa(dp323
I1
F0.030814307264904528
sa(dp324
I1
F0.025021073468224131
sa(dp325
I1
F0.0043134409202423285
sa(dp326
I1
F0.082843885773399961
sa(dp327
I1
F0.066212936683314183
sa(dp328
I1
F0.0071825144299850763
sa(dp329
I1
F0.048949461646486725
sa(dp330
I1
F0.017895586025275634
sa(dp331
I1
F-0.017525675824217046
sa(dp332
I1
F0.11193798639078523
sa(dp333
I1
F-0.01953640741467666
sa(dp334
I1
F0.015969155320945561
sa(dp335
I1
F0.01715652666584333
sa(dp336
I1
F0.01715652666584333
sa(dp337
I1
F0.028137117014196633
sa(dp338
I1
F0.028137117014196633
sa(dp339
I1
F0.01715652666584333
sa(dp340
I1
F5.6252701315027167
sa(dp341
I1
F-1.3802381680084039
sa(dp342
I1
F0.01715652666584333
sa(dp343
I1
F0.028137117014196633
sa(dp344
I1
F-0.015787358188006806
sa(dp345
I1
F0.028137117014196633
sa(dp346
I1
F0.028137117014196633
sa(dp347
I1
F0.01715652666584333
sa(dp348
I1
F0.028137117014196633
sa(dp349
I1
F0.028137117014196633
sa(dp350
I1
F0.028137117014196633
sa(dp351
I1
F0.028137117014196633
sa(dp352
I1
F-0.049902759261215124
sa(dp353
I1
F0.028137117014196633
sa(dp354
I1
F0.028137117014196633
sa(dp355
I1
F0.028137117014196633
sa(dp356
I1
F0.01715652666584333
sa(dp357
I1
F0.028137117014196633
sa(dp358
I1
F0.01715652666584333
sa(dp359
I1
F0.01715652666584333
sa(dp360
I1
F0.028137117014196633
sa(dp361
I1
F0.028137117014196633
sa(dp362
I1
F0.0081371170142006122
sa(dp363
I1
F0.028137117014196633
sa(dp364
I1
F0.028137117014196633
sa(dp365
I1
F0.028137117014196633
sa(dp366
I1
F0.028137117014196633
sa(dp367
I1
F0.028137117014196633
sa(dp368
I1
F0.028137117014196633
sa(dp369
I1
F0.01715652666584333
sa(dp370
I1
F0.028137117014196633
sa(dp371
I1
F0.028137117014196633
sa(dp372
I1
F0.030251956522391765
sa(dp373
I1
F0.028137117014196633
sa(dp374
I1
F0.01715652666584333
sa(dp375
I1
F0.028137117014196633
sa(dp376
I1
F0.013033517273328243
sa(dp377
I1
F0.011085449057816277
sa(dp378
I1
F0.0081371170142006122
sa(dp379
I1
F0.0085716803072273251
sa(dp380
I1
F0.61207655743248779
sa(dp381
I1
F0.02841634204685306
sa(dp382
I1
F0.090115442949922908
sa(dp383
I1
F0.015873845924829766
sa(dp384
I1
F0.038152021274072467
sa(dp385
I1
F0.038152021274072467
sa(dp386
I1
F0.038152021274072467
sa(dp387
I1
F0.018811362841461232
sa(dp388
I1
F0.017754079711835402
sa(dp389
I1
F0.025988400947198897
sa(dp390
I1
F0.025621452508175935
sa(dp391
I1
F0.025327847073754128
sa(dp392
I1
F0.024507451833187588
sa(dp393
I1
F0.010631623534891332
sa(dp394
I1
F0.020373922617068274
sa(dp395
I1
F0.027354385620469657
sa(dp396
I1
F0.027269167250324244
sa(dp397
I1
F0.028430646701849582
sa(dp398
I1
F0.038811362841443042
sa(dp399
I1
F0.018679883955996957
sa(dp400
I1
F0.036050770117640241
sa(dp401
I1
F0.023678266478441401
sa(dp402
I1
F0.038548210358385404
sa(dp403
I1
F0.012910125568964759
sa(dp404
I1
F0.023969444161821229
sa(dp405
I1
F0.017354385620478752
sa(dp406
I1
F0.011272468901893262
sa(dp407
I1
F0.038814688866068536
sa(dp408
I1
F0.019160662148351548
sa(dp409
I1
F0.019390338249422712
sa(dp410
I1
F0.032287698542290855
sa(dp411
I1
F0.018152021274090657
sa(dp412
I1
F0.059473471788351162
sa(dp413
I1
F31.337119671191431
sa(dp414
I1
F0.071756737831265127
sa(dp415
I1
F0.062843885773418151
sa(dp416
I1
F0.011574230187434864
sa(dp417
I1
F-0.018171616884515629
sa(dp418
I1
F0.0049913838514896725
sa(dp419
I1
F-0.049902759261215124
sa(dp420
I1
F0.045965914862705404
sa(dp421
I1
F0.055732017870894879
sa(dp422
I1
F0.004694850620396096
sa(dp423
I1
F0.022619464621215002
sa(dp424
I1
F0.012221507555224775
sa(dp425
I1
F0.010137711350893142
sa(dp426
I1
F-0.026749974746365979
sa(dp427
I1
F-0.026749974746365979
sa(dp428
I1
F-0.019048655579396723
sa(dp429
I1
F0.052843885773427246
sa(dp430
I1
F0.082843885773399961
sa(dp431
I1
F0.057300387528130159
sa(dp432
I1
F0.052843885773427246
sa(dp433
I1
F0.0083872325658376212
sa(dp434
I1
F0.059580624541922589
sa(dp435
I1
F-0.0096488472787825685
sa(dp436
I1
F0.013118431464874902
sa(dp437
I1
F0.033766204257972277
sa(dp438
I1
F-0.3906824828501243
sa(dp439
I1
F0.010672655445702617
sa(dp440
I1
F0.062843885773418151
sa(dp441
I1
F0.00069844576388788937
sa(dp442
I1
F-0.011587759016535415
sa(dp443
I1
F0.011998201620741611
sa(dp444
I1
F0.062843885773418151
sa(dp445
I1
F0.067300387528121064
sa(dp446
I1
F0.035016364216971851
sa(dp447
I1
F0.050494865138190903
sa(dp448
I1
F0.040068723479691926
sa(dp449
I1
F0.0018380890236358027
sa(dp450
I1
F0.0083651025344551044
sa(dp451
I1
F0.057300387528130159
sa(dp452
I1
F-0.020705372867936944
sa(dp453
I1
F0.010783812114922853
sa(dp454
I1
F-0.093406812174336551
sa(dp455
I1
F0.027300387528157444
sa(dp456
I1
F0.071756737831265127
sa(dp457
I1
F-0.08300444483921865
sa(dp458
I1
F-0.0031913201031983363
sa(dp459
I1
F0.0068086798968067797
sa(dp460
I1
F0.0068086798968067797
sa(dp461
I1
F0.006639465835363012
sa(dp462
I1
F0.010956820568566172
sa(dp463
I1
F0.0019343607691837406
sa(dp464
I1
F-0.027975537717665588
sa(dp465
I1
F0.026334250324794084
sa(dp466
I1
F-0.3128146999421233
sa(dp467
I1
F0.025588738256459465
sa(dp468
I1
F0.062843885773418151
sa(dp469
I1
F0.082843885773399961
sa(dp470
I1
F0.084474633159970836
sa(dp471
I1
F0.052843885773427246
sa(dp472
I1
F0.088387232565764862
sa(dp473
I1
F0.067300387528121064
sa(dp474
I1
F0.057300387528130159
sa(dp475
I1
F0.061756737831274222
sa(dp476
I1
F0.057300387528130159
sa(dp477
I1
F0.057300387528130159
sa(dp478
I1
F0.047300387528139254
sa(dp479
I1
F0.062843885773418151
sa(dp480
I1
F0.057300387528130159
sa(dp481
I1
F0.088387232565764862
sa(dp482
I1
F-103.30919863681788
sa(dp483
I1
F0.19906214745969919
sa(dp484
I1
F0.062843885773418151
sa(dp485
I1
F0.062843885773418151
sa(dp486
I1
F0.057300387528130159
sa(dp487
I1
F0.058387232565792146
sa(dp488
I1
F0.051756737831055943
sa(dp489
I1
F0.12175673783121965
sa(dp490
I1
F0.051756737831055943
sa(dp491
I1
F0.072843885773409056
sa(dp492
I1
F0.069473471788342067
sa(dp493
I1
F0.067300387528121064
sa(dp494
I1
F0.063930427904324461
sa(dp495
I1
F0.040766595595641775
sa(dp496
I1
F0.067300387528121064
sa(dp497
I1
F0.039580624541940779
sa(dp498
I1
F0.10838723256574667
sa(dp499
I1
F0.057300387528130159
sa(dp500
I1
F0.072843885773409056
sa(dp501
I1
F0.077300387528111969
sa(dp502
I1
F0.072843885773409056
sa(dp503
I1
F0.062843885773418151
sa(dp504
I1
F0.082843885773399961
sa(dp505
I1
F0.078387232565773957
sa(dp506
I1
F0.062843885773418151
sa(dp507
I1
F0.062843885773418151
sa(dp508
I1
F0.071756737831265127
sa(dp509
I1
F0.077300387528111969
sa(dp510
I1
F0.082843885773399961
sa(dp511
I1
F-13808.688860889975
sa(dp512
I1
F0.078387232565773957
sa(dp513
I1
F0.077300387528111969
sa(dp514
I1
F0.078387232565773957
sa(dp515
I1
F0.057300387528130159
sa(dp516
I1
F0.067300387528121064
sa(dp517
I1
F0.066542981873681128
sa(dp518
I1
F0.0094795884123186624
sa(dp519
I1
F-11612.999387850141
sa(dp520
I1
F-0.038425769812562294
sa(dp521
I1
F0.0061982538962155331
sa(dp522
I1
F0.0061982538962155331
sa(dp523
I1
F0.0061982538962155331
sa(dp524
I1
F-0.0043246538858880967
sa(dp525
I1
F0.03388333100471641
sa(dp526
I1
F0.0061982538962155331
sa(dp527
I1
F0.0061982538962155331
sa(dp528
I1
F0.0061982538962155331
sa(dp529
I1
F0.0061982538962155331
sa(dp530
I1
F0.0061982538962155331
sa(dp531
I1
F0.0061982538962155331
sa(dp532
I1
F0.0061982538962155331
sa(dp533
I1
F0.0061982538962155331
sa(dp534
I1
F0.0061982538962155331
sa(dp535
I1
F-0.0043246538858880967
sa(dp536
I1
F0.0061982538962155331
sa(dp537
I1
F0.0061982538962155331
sa(dp538
I1
F0.0061982538962155331
sa(dp539
I1
F0.0061982538962155331
sa(dp540
I1
F0.0061982538962155331
sa(dp541
I1
F0.0061982538962155331
sa(dp542
I1
F0.0061982538962155331
sa(dp543
I1
F0.0061982538962155331
sa(dp544
I1
F0.0061982538962155331
sa(dp545
I1
F0.0061982538962155331
sa(dp546
I1
F0.0061982538962155331
sa(dp547
I1
F0.0061982538962155331
sa(dp548
I1
F-0.0043246538858880967
sa(dp549
I1
F0.0061982538962155331
sa(dp550
I1
F0.0061982538962155331
sa(dp551
I1
F-0.0043246538858880967
sa(dp552
I1
F0.0061982538962155331
sa(dp553
I1
F0.0061982538962155331
sa(dp554
I1
F0.0061982538962155331
sa(dp555
I1
F0.0061982538962155331
sa(dp556
I1
F0.0061982538962155331
sa(dp557
I1
F0.0061982538962155331
sa(dp558
I1
F0.0061982538962155331
sa(dp559
I1
F0.0061982538962155331
sa(dp560
I1
F-0.0043246538858880967
sa(dp561
I1
F-0.0043246538858880967
sa(dp562
I1
F0.0061982538962155331
sa(dp563
I1
F0.0061982538962155331
sa(dp564
I1
F0.0061982538962155331
sa(dp565
I1
F0.0061982538962155331
sa(dp566
I1
F0.0061982538962155331
sa(dp567
I1
F0.0061982538962155331
sa(dp568
I1
F0.0061982538962155331
sa(dp569
I1
F0.0061982538962155331
sa(dp570
I1
F0.0061982538962155331
sa(dp571
I1
F0.0061982538962155331
sa(dp572
I1
F0.0061982538962155331
sa(dp573
I1
F0.0061982538962155331
sa(dp574
I1
F0.0053958840055656765
sa(dp575
I1
F0.0061982538962155331
sa(dp576
I1
F-0.0043246538858880967
sa(dp577
I1
F-0.0043246538858880967
sa(dp578
I1
F0.0061982538962155331
sa(dp579
I1
F0.0061982538962155331
sa(dp580
I1
F0.0061982538962155331
sa(dp581
I1
F0.0061982538962155331
sa(dp582
I1
F0.0061982538962155331
sa(dp583
I1
F0.0061982538962155331
sa(dp584
I1
F-0.0043246538858880967
sa(dp585
I1
F0.015897447125141184
sa(dp586
I1
F0.0061982538962155331
sa(dp587
I1
F0.0061982538962155331
sa(dp588
I1
F0.0061982538962155331
sa(dp589
I1
F-0.0051060474929727206
sa(dp590
I1
F0.0061982538962155331
sa(dp591
I1
F0.0053958840055656765
sa(dp592
I1
F-0.055686559079759945
sa(dp593
I1
F-0.32368808879573407
sa(dp594
I1
F0.010439912788768879
sa(dp595
I1
F0.0081854784020833904
sa(dp596
I1
F-0.017843478328472884
sa(dp597
I1
F0.057300387528130159
sa(dp598
I1
F0.067300387528121064
sa(dp599
I1
F0.038387232565810336
sa(dp600
I1
F0.072843885773409056
sa(dp601
I1
F-0.17259791190531359
sa(dp602
I1
F0.064762528018491139
sa(dp603
I1
F0.057300387528130159
sa(dp604
I1
F0.051756737831055943
sa(dp605
I1
F0.023660854733691394
sa(dp606
I1
F0.062843885773418151
sa(dp607
I1
F0.061756737831274222
sa(dp608
I1
F0.0023036302952448295
sa(dp609
I1
F0.0013285751665392809
sa(dp610
I1
F-0.86853201130915636
sa(dp611
I1
F0.31850237520082203
sa(dp612
I1
F0.0068248348464408082
sa(dp613
I1
F0.073930427904315366
sa(dp614
I1
F0.082843885773399961
sa(dp615
I1
F0.0097300409244951425
sa(dp616
I1
F0.0047763335020931663
sa(dp617
I1
F-0.0056798200337198068
sa(dp618
I1
F-0.0096506034714707312
sa(dp619
I1
F0.0099493580505765067
sa(dp620
I1
F0.082843885773399961
sa(dp621
I1
F0.051756737831055943
sa(dp622
I1
F0.014499541336036259
sa(dp623
I1
F0.00026508416321746608
sa(dp624
I1
F-0.0026016320451844877
sa(dp625
I1
F0.0084677615494683778
sa(dp626
I1
F0.0091388135879384436
sa(dp627
I1
F-0.01953640741467666
sa(dp628
I1
F-0.01953640741467666
sa(dp629
I1
F-0.04317516515355635
sa(dp630
I1
F0.0068424557923663087
sa(dp631
I1
F-0.031141157374378281
sa(dp632
I1
F0.082843885773399961
sa(dp633
I1
F0.00036961907227350821
sa(dp634
I1
F0.80838723256579215
sa(dp635
I1
F0.047300387528139254
sa(dp636
I1
F0.0087405857085798289
sa(dp637
I1
F0.011224386207800308
sa(dp638
I1
F0.0089397587910724496
sa(dp639
I1
F-0.025079897890108782
sa(dp640
I1
F0.077300387528111969
sa(dp641
I1
F0.082843885773399961
sa(dp642
I1
F0.013038042558036977
sa(dp643
I1
F0.05437041913290841
sa(dp644
I1
F0.061756737831274222
sa(dp645
I1
F0.051756737831055943
sa(dp646
I1
F-71.657372991224634
sa(dp647
I1
F0.019641794374138044
sa(dp648
I1
F0.017456226009585407
sa(dp649
I1
F0.031547034634385795
sa(dp650
I1
F0.056212936683323278
sa(dp651
I1
F0.070559105188976901
sa(dp652
I1
F0.031756737831074133
sa(dp653
I1
F0.033930427904351745
sa(dp654
I1
F-0.00011419797687040045
sa(dp655
I1
F-0.00011419797687040045
sa(dp656
I1
F0.066212936683314183
sa(dp657
I1
F0.087300387528330248
sa(dp658
I1
F0.061756737831274222
sa(dp659
I1
F0.044459614712195616
sa(dp660
I1
F0.077300387528111969
sa(dp661
I1
F0.061756737831274222
sa(dp662
I1
F0.022619464621215002
sa(dp663
I1
F0.058158969160984952
sa(dp664
I1
F0.0154397213504609
sa(dp665
I1
F-0.038425769812562294
sa(dp666
I1
F0.072843885773409056
sa(dp667
I1
F0.072843885773409056
sa(dp668
I1
F0.031283041954125679
sa(dp669
I1
F0.031756737831074133
sa(dp670
I1
F0.057300387528130159
sa(dp671
I1
F-0.63243131096533034
sa(dp672
I1
F-3.1879545842407424
sa(dp673
I1
F0.041901548715685522
sa(dp674
I1
F0.046413174205071073
sa(dp675
I1
F0.073930427904315366
sa(dp676
I1
F0.018823637425839479
sa(dp677
I1
F0.029096547237259074
sa(dp678
I1
F0.028550536787975034
sa(dp679
I1
F0.028550536787975034
sa(dp680
I1
F0.025383121830714117
sa(dp681
I1
F0.028550536787975034
sa(dp682
I1
F0.029369266220555801
sa(dp683
I1
F0.029369266220555801
sa(dp684
I1
F0.02800376304060137
sa(dp685
I1
F0.025217329629981577
sa(dp686
I1
F0.039102141376361033
sa(dp687
I1
F0.038277245325616605
sa(dp688
I1
F0.019818185793269549
sa(dp689
I1
F0.02824444563157158
sa(dp690
I1
F0.018277245325634794
sa(dp691
I1
F0.018550536787984129
sa(dp692
I1
F0.058550536787947749
sa(dp693
I1
F0.026907925709338087
sa(dp694
I1
F0.028550536787975034
sa(dp695
I1
F0.027730089934721036
sa(dp696
I1
F0.025254609340095158
sa(dp697
I1
F0.024367181490561052
sa(dp698
I1
F0.026907925709338087
sa(dp699
I1
F0.029930917472256624
sa(dp700
I1
F0.030826882880433004
sa(dp701
I1
F0.028823637425830384
sa(dp702
I1
F0.029096547237259074
sa(dp703
I1
F0.027600532465044125
sa(dp704
I1
F0.029096547237259074
sa(dp705
I1
F0.011153059023058631
sa(dp706
I1
F0.019020796659901862
sa(dp707
I1
F0.027182171267327249
sa(dp708
I1
F-0.025371572332517189
sa(dp709
I1
F5.0144056030675301
sa(dp710
I1
F-0.32587025987345442
sa(dp711
I1
F-0.025344489220742616
sa(dp712
I1
F-0.017525675824217046
sa(dp713
I1
F0.062843885773418151
sa(dp714
I1
F-0.70681745933529783
sa(dp715
I1
F0.062843885773418151
sa(dp716
I1
F0.057300387528130159
sa(dp717
I1
F4.474071507129338
sa(dp718
I1
F0.047300387528139254
sa(dp719
I1
F-0.036371425427219606
sa(dp720
I1
F-0.012879367506727135
sa(dp721
I1
F0.0025046694824055749
sa(dp722
I1
F-0.018652978599320136
sa(dp723
I1
F-0.037350988884568892
sa(dp724
I1
F0.0089999296769605053
sa(dp725
I1
F0.057300387528130159
sa(dp726
I1
F0.081756737831256032
sa(dp727
I1
F0.062843885773418151
sa(dp728
I1
F0.062843885773418151
sa(dp729
I1
F0.077300387528111969
sa(dp730
I1
F0.077300387528111969
sa(dp731
I1
F0.088387232565764862
sa(dp732
I1
F0.067300387528121064
sa(dp733
I1
F0.0506689840854051
sa(dp734
I1
F0.088387232565764862
sa(dp735
I1
F0.050513058242970033
sa(dp736
I1
F-0.013157544207629712
sa(dp737
I1
F0.0058183767055766111
sa(dp738
I1
F0.020768616764428316
sa(dp739
I1
F0.015818376705567516
sa(dp740
I1
F0.0058183767055766111
sa(dp741
I1
F-0.049011607398213641
sa(dp742
I1
F0.020576398649538419
sa(dp743
I1
F0.0046213520479909675
sa(dp744
I1
F0.0045922189332969765
sa(dp745
I1
F-1.7780032791847589e-05
sa(dp746
I1
F0.02697141518572721
sa(dp747
I1
F0.062843885773418151
sa(dp748
I1
F0.051756737831055943
sa(dp749
I1
F0.088387232565764862
sa(dp750
I1
F0.057300387528130159
sa(dp751
I1
F0.073930427904315366
sa(dp752
I1
F0.00088787838592452317
sa(dp753
I1
F0.00088787838592452317
sa(dp754
I1
F0.00088787838592452317
sa(dp755
I1
F0.011417913236485333
sa(dp756
I1
F0.011417913236485333
sa(dp757
I1
F0.011417913236485333
sa(dp758
I1
F0.011417913236485333
sa(dp759
I1
F0.011417913236485333
sa(dp760
I1
F0.011417913236485333
sa(dp761
I1
F0.011417913236485333
sa(dp762
I1
F0.021950742572286686
sa(dp763
I1
F0.021950742572286686
sa(dp764
I1
F0.021950742572286686
sa(dp765
I1
F0.021950742572286686
sa(dp766
I1
F0.00088471661518951805
sa(dp767
I1
F0.011417913236485333
sa(dp768
I1
F0.021950742572286686
sa(dp769
I1
F0.011417913236485333
sa(dp770
I1
F0.011417913236485333
sa(dp771
I1
F0.011417913236485333
sa(dp772
I1
F-0.030938506373459518
sa(dp773
I1
F0.00088787838592452317
sa(dp774
I1
F0.00088787838592452317
sa(dp775
I1
F0.011407109143732441
sa(dp776
I1
F0.00088787838592452317
sa(dp777
I1
F0.00088787838592452317
sa(dp778
I1
F-0.041634897465556264
sa(dp779
I1
F-0.041634897465556264
sa(dp780
I1
F0.0036763295505437554
sa(dp781
I1
F-0.041634897465556264
sa(dp782
I1
F-0.04266830345603978
sa(dp783
I1
F-0.2747788714541457
sa(dp784
I1
F0.087300387528330248
sa(dp785
I1
F0.072843885773409056
sa(dp786
I1
F0.077300387528111969
sa(dp787
I1
F-0.020721924643893885
sa(dp788
I1
F0.0011268837742051119
sa(dp789
I1
F0.047606525691577417
sa(dp790
I1
F0.0010002031575737647
sa(dp791
I1
F0.029108071119239298
sa(dp792
I1
F-0.013588753355463723
sa(dp793
I1
F0.046494433779230349
sa(dp794
I1
F0.02017275031431609
sa(dp795
I1
F0.061126883774207386
sa(dp796
I1
F-0.030906810700088272
sa(dp797
I1
F-0.0057962078435878084
sa(dp798
I1
F-0.0096488472787825685
sa(dp799
I1
F-0.05949436602543301
sa(dp800
I1
F0.0074100497530622533
sa(dp801
I1
F-0.032884008801644882
sa(dp802
I1
F0.0092293238048739568
sa(dp803
I1
F-0.025344489220742616
sa(dp804
I1
F0.0070515510421245153
sa(dp805
I1
F0.037799174102872257
sa(dp806
I1
F-0.0030044448392203549
sa(dp807
I1
F0.055795678828786777
sa(dp808
I1
F-0.0056915761786768826
sa(dp809
I1
F0.0074100497530622533
sa(dp810
I1
F0.069316780793840849
sa(dp811
I1
F0.069316780793840849
sa(dp812
I1
F0.069316780793840849
sa(dp813
I1
F0.069316780793840849
sa(dp814
I1
F0.069316780793840849
sa(dp815
I1
F0.069316780793840849
sa(dp816
I1
F0.069316780793840849
sa(dp817
I1
F-0.08300444483921865
sa(dp818
I1
F0.072843885773409056
sa(dp819
I1
F0.039663366736505168
sa(dp820
I1
F0.085016364216926377
sa(dp821
I1
F0.00088471661518951805
sa(dp822
I1
F-0.3110483536106301
sa(dp823
I1
F0.053812370387504416
sa(dp824
I1
F0.042843885773436341
sa(dp825
I1
F0.061756737831274222
sa(dp826
I1
F-0.006322448459357588
sa(dp827
I1
F0.0047628161750168374
sa(dp828
I1
F0.0047628161750168374
sa(dp829
I1
F0.015175962975717994
sa(dp830
I1
F0.0047628161750168374
sa(dp831
I1
F0.0047628161750168374
sa(dp832
I1
F0.0093175171498813825
sa(dp833
I1
F0.057300387528130159
sa(dp834
I1
F0.045165720571048951
sa(dp835
I1
F-0.024616145476429097
sa(dp836
I1
F0.010439912788768879
sa(dp837
I1
F-0.0068443160286193461
sa(dp838
I1
F0.00027316487192763361
sa(dp839
I1
F-0.026868677334732638
sa(dp840
I1
F-51.785339962766983
sa(dp841
I1
F0.0016815123106965757
sa(dp842
I1
F0.022619464621215002
sa(dp843
I1
F-0.022194699181909527
sa(dp844
I1
F-0.044267982129113648
sa(dp845
I1
F-0.054034085137288912
sa(dp846
I1
F0.044694850620402349
sa(dp847
I1
F0.012221507555224775
sa(dp848
I1
F0.044694850620402349
sa(dp849
I1
F0.044694850620402349
sa(dp850
I1
F0.00054267669870000645
sa(dp851
I1
F0.004694850620396096
sa(dp852
I1
F0.004694850620396096
sa(dp853
I1
F0.004694850620396096
sa(dp854
I1
F0.066768834607174199
sa(dp855
I1
F-0.0001228183806887273
sa(dp856
I1
F-0.09945732330130852
sa(dp857
I1
F0.11076677748542352
sa(dp858
I1
F-0.030004024209972613
sa(dp859
I1
F-0.0059362133192593092
sa(dp860
I1
F0.11062533494714444
sa(dp861
I1
F0.14443214012317185
sa(dp862
I1
F-0.035895582971377848
sa(dp863
I1
F0.0098990996394405784
sa(dp864
I1
F-0.032270029114201293
sa(dp865
I1
F0.0077299708858049598
sa(dp866
I1
F0.0089531038187544709
sa(dp867
I1
F0.46939920241737809
sa(dp868
I1
F0.0068086798968067797
sa(dp869
I1
F0.088387232565764862
sa(dp870
I1
F0.088387232565764862
sa(dp871
I1
F0.082843885773399961
sa(dp872
I1
F0.031756737831074133
sa(dp873
I1
F-0.028047197314990058
sa(dp874
I1
F0.036345154199125318
sa(dp875
I1
F-0.011587759016535415
sa(dp876
I1
F-0.01488056887896505
sa(dp877
I1
F-0.016136343548240006
sa(dp878
I1
F-0.030004024209972613
sa(dp879
I1
F-0.020721924643893885
sa(dp880
I1
F0.025356679257839687
sa(dp881
I1
F0.018662330625417667
sa(dp882
I1
F0.033159915057424882
sa(dp883
I1
F0.067300387528121064
sa(dp884
I1
F0.39935405113988054
sa(dp885
I1
F0.0031313226652684989
sa(dp886
I1
F0.0031315837723724371
sa(dp887
I1
F0.0031315837723724371
sa(dp888
I1
F0.0032570610560043178
sa(dp889
I1
F0.0032570610560043178
sa(dp890
I1
F-0.061320902550178857
sa(dp891
I1
F-0.0720851544595007
sa(dp892
I1
F-0.018267489047062213
sa(dp893
I1
F-0.039793476947792783
sa(dp894
I1
F-0.018267489047062213
sa(dp895
I1
F-0.015145755870861421
sa(dp896
I1
F-0.018267489047062213
sa(dp897
I1
F-0.018267489047062213
sa(dp898
I1
F-0.031600263413650964
sa(dp899
I1
F0.036899468175747074
sa(dp900
I1
F0.013043922432544264
sa(dp901
I1
F0.063930427904324461
sa(dp902
I1
F0.087300387528330248
sa(dp903
I1
F0.057300387528130159
sa(dp904
I1
F0.042356579869419875
sa(dp905
I1
F0.018003763040610465
sa(dp906
I1
F-1421.6826996124719
sa(dp907
I1
F-1412.1793310159146
sa(dp908
I1
F0.022718941937014847
sa(dp909
I1
F-0.035020000298388254
sa(dp910
I1
F0.031756737831074133
sa(dp911
I1
F0.07066898408538691
sa(dp912
I1
F0.070919510833391541
sa(dp913
I1
F0.057300387528130159
sa(dp914
I1
F0.051756737831055943
sa(dp915
I1
F0.047300387528139254
sa(dp916
I1
F0.057300387528130159
sa(dp917
I1
F0.052843885773427246
sa(dp918
I1
F0.047895188653697573
sa(dp919
I1
F0.037433486810968475
sa(dp920
I1
F0.02697141518572721
sa(dp921
I1
F0.006046162639989916
sa(dp922
I1
F-0.015283038465668142
sa(dp923
I1
F0.0027189419370188261
sa(dp924
I1
F0.012589641780692773
sa(dp925
I1
F-0.025668656893557795
sa(dp926
I1
F-0.025668656893557795
sa(dp927
I1
F-0.025668656893557795
sa(dp928
I1
F0.032785144614663864
sa(dp929
I1
F0.043172252927931254
sa(dp930
I1
F0.01587158173607861
sa(dp931
I1
F0.053558988789887962
sa(dp932
I1
F0.043172252927931254
sa(dp933
I1
F-0.0031913425529239703
sa(dp934
I1
F-0.0010602412089326663
sa(dp935
I1
F-0.001898048537213981
sa(dp936
I1
F0.053558988789887962
sa(dp937
I1
F0.058748257531306081
sa(dp938
I1
F-0.020182778432626947
sa(dp939
I1
F-0.052600073919080614
sa(dp940
I1
F0.010065322825624889
sa(dp941
I1
F-0.010261702061910682
sa(dp942
I1
F0.068387232565783052
sa(dp943
I1
F0.04303774595359755
sa(dp944
I1
F0.00019815067219042248
sa(dp945
I1
F-0.37696225404647521
sa(dp946
I1
F0.046263986335134177
sa(dp947
I1
F0.058896167600778426
sa(dp948
I1
F0.054512379528432575
sa(dp949
I1
F0.10838723256574667
sa(dp950
I1
F-0.017156114226509089
sa(dp951
I1
F0.040668984085414195
sa(dp952
I1
F0.051756737831055943
sa(dp953
I1
F0.052843885773427246
sa(dp954
I1
F0.068387232565783052
sa(dp955
I1
F0.081756737831256032
sa(dp956
I1
F0.057300387528130159
sa(dp957
I1
F1.844979457016052
sa(dp958
I1
F0.057300387528130159
sa(dp959
I1
F0.044036217599341398
sa(dp960
I1
F0.011594381972429346
sa(dp961
I1
F0.047300387528139254
sa(dp962
I1
F0.42513772143547612
sa(dp963
I1
F-0.076532533584455109
sa(dp964
I1
F-0.030641894520087476
sa(dp965
I1
F-0.025079897890108782
sa(dp966
I1
F-0.025079897890108782
sa(dp967
I1
F-0.01522201715587812
sa(dp968
I1
F-0.025079897890108782
sa(dp969
I1
F0.047986161523397186
sa(dp970
I1
F-0.024616145476429097
sa(dp971
I1
F0.082843885773399961
sa(dp972
I1
F0.082843885773399961
sa(dp973
I1
F0.082843885773399961
sa(dp974
I1
F0.10838723256574667
sa(dp975
I1
F-11818.688182219521
sa(dp976
I1
F0.015169774984315154
sa(dp977
I1
F0.024656895734096906
sa(dp978
I1
F0.0048823121388181789
sa(dp979
I1
F0.015119431121036087
sa(dp980
I1
F-0.013880494782753772
sa(dp981
I1
F0.04010474223595395
sa(dp982
I1
F0.051756737831055943
sa(dp983
I1
F2.3066681318648534
sa(dp984
I1
F0.082843885773399961
sa(dp985
I1
F0.051094686212536544
sa(dp986
I1
F-0.072589950246950252
sa(dp987
I1
F0.0075040820735949865
sa(dp988
I1
F0.00804712653604156
sa(dp989
I1
F0.0061982538962155331
sa(dp990
I1
F-0.0025292501623823682
sa(dp991
I1
F-0.036608725513616491
sa(dp992
I1
F0.051265586482458048
sa(dp993
I1
F0.01021555031748278
sa(dp994
I1
F0.032279016371631997
sa(dp995
I1
F0.054341079655870317
sa(dp996
I1
F-0.012568455806402312
sa(dp997
I1
F-0.10153900244206682
sa(dp998
I1
F-0.034628414768562266
sa(dp999
I1
F-0.0006963992212405401
sa(dp1000
I1
F0.00099877154529792733
sa(dp1001
I1
F-0.00033320161357153211
sa(dp1002
I1
F0.0107399620462445
sa(dp1003
I1
F0.0091426505435094896
sa(dp1004
I1
F0.019286995197859369
sa(dp1005
I1
F0.082843885773399961
sa(dp1006
I1
F0.072843885773409056
sa(dp1007
I1
F0.077300387528111969
sa(dp1008
I1
F-0.0063535469958679869
sa(dp1009
I1
F-0.18502134767632583
sa(dp1010
I1
F-0.18502134767632583
sa(dp1011
I1
F-0.42504403522599432
sa(dp1012
I1
F0.02348334700769783
sa(dp1013
I1
F0.018662330625417667
sa(dp1014
I1
F0.093930427904297176
sa(dp1015
I1
F0.047300387528139254
sa(dp1016
I1
F-0.12487048723491512
sa(dp1017
I1
F-0.025079897890108782
sa(dp1018
I1
F0.013879324586966391
sa(dp1019
I1
F0.11178278619217963
sa(dp1020
I1
F0.073930427904315366
sa(dp1021
I1
F0.060668984085396005
sa(dp1022
I1
F0.041644132760666253
sa(dp1023
I1
F0.068387232565783052
sa(dp1024
I1
F1.0494734717883603
sa(dp1025
I1
F-0.010645948859973942
sa(dp1026
I1
F0.073930427904315366
sa(dp1027
I1
F0.080668984085377815
sa(dp1028
I1
F-0.034875119962180179
sa(dp1029
I1
F0.044024541377908122
sa(dp1030
I1
F0.061756737831274222
sa(dp1031
I1
F0.031756737831074133
sa(dp1032
I1
F0.036212936683341468
sa(dp1033
I1
F0.072843885773409056
sa(dp1034
I1
F0.031756737831074133
sa(dp1035
I1
F0.057300387528130159
sa(dp1036
I1
F0.024202173655638148
sa(dp1037
I1
F0.041756737831065038
sa(dp1038
I1
F-0.023918951313817161
sa(dp1039
I1
F0.027410049753058274
sa(dp1040
I1
F0.057300387528130159
sa(dp1041
I1
F0.057300387528130159
sa(dp1042
I1
F0.02740208809473188
sa(dp1043
I1
F0.075419080647861847
sa(dp1044
I1
F0.065073210752416344
sa(dp1045
I1
F0.067846560261614286
sa(dp1046
I1
F0.0048823121388181789
sa(dp1047
I1
F0.052843885773427246
sa(dp1048
I1
F0.10838723256574667
sa(dp1049
I1
F0.057300387528130159
sa(dp1050
I1
F0.078387232565773957
sa(dp1051
I1
F0.057300387528130159
sa(dp1052
I1
F0.017935080697426997
sa(dp1053
I1
F0.0530215063806736
sa(dp1054
I1
F-0.028161910976365334
sa(dp1055
I1
F-0.0075353346147295497
sa(dp1056
I1
F-0.1925979119052954
sa(dp1057
I1
F-103.29305634762227
sa(dp1058
I1
F0.033930427904351745
sa(dp1059
I1
F-0.035122852719609909
sa(dp1060
I1
F0.058601305318788377
sa(dp1061
I1
F-0.018264223943418756
sa(dp1062
I1
F0.052843885773427246
sa(dp1063
I1
F-0.010261702061910682
sa(dp1064
I1
F-0.22797553771766843
sa(dp1065
I1
F0.045131477265911712
sa(dp1066
I1
F0.045279118341341018
sa(dp1067
I1
F0.055392389582266333
sa(dp1068
I1
F-0.083279205966320546
sa(dp1069
I1
F0.068387232565783052
sa(dp1070
I1
F0.082843885773399961
sa(dp1071
I1
F0.057300387528130159
sa(dp1072
I1
F0.077300387528111969
sa(dp1073
I1
F0.071232705816328235
sa(dp1074
I1
F0.077300387528111969
sa(dp1075
I1
F0.067300387528121064
sa(dp1076
I1
F0.07610169470422079
sa(dp1077
I1
F0.047986161523397186
sa(dp1078
I1
F-0.021100910839237486
sa(dp1079
I1
F0.89983610218023102
sa(dp1080
I1
F-0.34243131096513935
sa(dp1081
I1
F0.022627008775316426
sa(dp1082
I1
F-0.041449463212074988
sa(dp1083
I1
F-0.040895186610100609
sa(dp1084
I1
F-0.049505134861817623
sa(dp1085
I1
F0.025326517078383404
sa(dp1086
I1
F0.023530117688210339
sa(dp1087
I1
F-0.049505134861817623
sa(dp1088
I1
F0.057300387528130159
sa(dp1089
I1
F0.0099493580505765067
sa(dp1090
I1
F0.028446501976787886
sa(dp1091
I1
F0.0089531038187544709
sa(dp1092
I1
F0.098387232565755767
sa(dp1093
I1
F0.057300387528130159
sa(dp1094
I1
F0.051967860045351699
sa(dp1095
I1
F0.0079590477488125089
sa(dp1096
I1
F0.0076824908498309696
sa(dp1097
I1
F0.057300387528130159
sa(dp1098
I1
F0.077300387528111969
sa(dp1099
I1
F0.10838723256574667
sa(dp1100
I1
F0.10838723256574667
sa(dp1101
I1
F0.10838723256574667
sa(dp1102
I1
F0.10838723256574667
sa(dp1103
I1
F0.082843885773399961
sa(dp1104
I1
F0.62273627255126485
sa(dp1105
I1
F-0.017565545884977496
sa(dp1106
I1
F0.044024541377908122
sa(dp1107
I1
F0.048123636958933957
sa(dp1108
I1
F0.27538385452356806
sa(dp1109
I1
F0.0073795765337933972
sa(dp1110
I1
F-0.020100900360560559
sa(dp1111
I1
F0.0024646653852755662
sa(dp1112
I1
F0.082843885773399961
sa(dp1113
I1
F0.098387232565755767
sa(dp1114
I1
F0.087300387528330248
sa(dp1115
I1
F0.067300387528121064
sa(dp1116
I1
F0.12714191921304518
sa(dp1117
I1
F-0.020744175460521319
sa(dp1118
I1
F0.093930427904297176
sa(dp1119
I1
F0.0061638010835167734
sa(dp1120
I1
F0.05610169470423898
sa(dp1121
I1
F0.078387232565773957
sa(dp1122
I1
F0.057300387528130159
sa(dp1123
I1
F0.093930427904297176
sa(dp1124
I1
F0.049354051139971489
sa(dp1125
I1
F0.067300387528121064
sa(dp1126
I1
F-0.032763876085169841
sa(dp1127
I1
F0.040068723479691926
sa(dp1128
I1
F-0.035354134476207832
sa(dp1129
I1
F0.05516847218790133
sa(dp1130
I1
F0.0046809429934597802
sa(dp1131
I1
F-0.0021362001417060128
sa(dp1132
I1
F0.0064332059038889611
sa(dp1133
I1
F0.0064332059038889611
sa(dp1134
I1
F0.0076492462694517371
sa(dp1135
I1
F0.0029453290787699871
sa(dp1136
I1
F-0.030067809940689472
sa(dp1137
I1
F0.0060002920965587236
sa(dp1138
I1
F0.0022594581715082995
sa(dp1139
I1
F0.0078637998582991031
sa(dp1140
I1
F0.040068723479691926
sa(dp1141
I1
F-0.022352958603036654
sa(dp1142
I1
F0.050494865138190903
sa(dp1143
I1
F0.021878070855251508
sa(dp1144
I1
F0.051934360769195109
sa(dp1145
I1
F0.050494865138190903
sa(dp1146
I1
F0.01699183640192814
sa(dp1147
I1
F0.047454243786276606
sa(dp1148
I1
F0.047454243786276606
sa(dp1149
I1
F0.047454243786276606
sa(dp1150
I1
F0.058158969160984952
sa(dp1151
I1
F-0.033231165392834328
sa(dp1152
I1
F-3.0827373410447194
sa(dp1153
I1
F0.039663366736505168
sa(dp1154
I1
F0.02348334700769783
sa(dp1155
I1
F-0.030641894520087476
sa(dp1156
I1
F0.058939758791069607
sa(dp1157
I1
F0.032843885773445436
sa(dp1158
I1
F0.069580624541913494
sa(dp1159
I1
F0.05610169470423898
sa(dp1160
I1
F0.061756737831274222
sa(dp1161
I1
F0.032843885773445436
sa(dp1162
I1
F0.031756737831074133
sa(dp1163
I1
F0.047300387528139254
sa(dp1164
I1
F0.10838723256574667
sa(dp1165
I1
F0.0060636346300384503
sa(dp1166
I1
F0.048047126536047813
sa.