(lp1
(dp2
I0
I3
sa(dp3
I0
I3
sa(dp4
I0
I3
sa(dp5
I0
I3
sa(dp6
I0
I3
sa(dp7
I0
I3
sa(dp8
I0
I3
sa(dp9
I0
I3
sa(dp10
I0
I4
sa(dp11
I0
I2
sa(dp12
I0
I3
sa(dp13
I0
I2
sa(dp14
I0
I2
sa(dp15
I0
I3
sa(dp16
I0
I3
sa(dp17
I0
I3
sa(dp18
I0
I3
sa(dp19
I0
I3
sa(dp20
I0
I3
sa(dp21
I0
I3
sa(dp22
I0
I3
sa(dp23
I0
I3
sa(dp24
I0
I3
sa(dp25
I0
I3
sa(dp26
I0
I3
sa(dp27
I0
I3
sa(dp28
I0
I3
sa(dp29
I0
I3
sa(dp30
I0
I3
sa(dp31
I0
I3
sa(dp32
I0
I3
sa(dp33
I0
I3
sa(dp34
I0
I3
sa(dp35
I0
I3
sa(dp36
I0
I3
sa(dp37
I0
I3
sa(dp38
I0
I3
sa(dp39
I0
I3
sa(dp40
I0
I3
sa(dp41
I0
I3
sa(dp42
I0
I3
sa(dp43
I0
I3
sa(dp44
I0
I3
sa(dp45
I0
I3
sa(dp46
I0
I3
sa(dp47
I0
I3
sa(dp48
I0
I3
sa(dp49
I0
I3
sa(dp50
I0
I3
sa(dp51
I0
I3
sa(dp52
I0
I3
sa(dp53
I0
I4
sa(dp54
I0
I1
sa(dp55
I0
I3
sa(dp56
I0
I3
sa(dp57
I0
I3
sa(dp58
I0
I3
sa(dp59
I0
I3
sa(dp60
I0
I3
sa(dp61
I0
I3
sa(dp62
I0
I3
sa(dp63
I0
I4
sa(dp64
I0
I3
sa(dp65
I0
I3
sa(dp66
I0
I3
sa(dp67
I0
I3
sa(dp68
I0
I1
sa(dp69
I0
I3
sa(dp70
I0
I3
sa(dp71
I0
I3
sa(dp72
I0
I3
sa(dp73
I0
I3
sa(dp74
I0
I3
sa(dp75
I0
I3
sa(dp76
I0
I3
sa(dp77
I0
I3
sa(dp78
I0
I3
sa(dp79
I0
I3
sa(dp80
I0
I3
sa(dp81
I0
I3
sa(dp82
I0
I3
sa(dp83
I0
I3
sa(dp84
I0
I3
sa(dp85
I0
I3
sa(dp86
I0
I3
sa(dp87
I0
I3
sa(dp88
I0
I3
sa(dp89
I0
I3
sa(dp90
I0
I3
sa(dp91
I0
I3
sa(dp92
I0
I3
sa(dp93
I0
I3
sa(dp94
I0
I3
sa(dp95
I0
I3
sa(dp96
I0
I3
sa(dp97
I0
I3
sa(dp98
I0
I3
sa(dp99
I0
I3
sa(dp100
I0
I3
sa(dp101
I0
I3
sa(dp102
I0
I3
sa(dp103
I0
I3
sa(dp104
I0
I3
sa(dp105
I0
I3
sa(dp106
I0
I3
sa(dp107
I0
I3
sa(dp108
I0
I3
sa(dp109
I0
I3
sa(dp110
I0
I3
sa(dp111
I0
I3
sa(dp112
I0
I3
sa(dp113
I0
I3
sa(dp114
I0
I3
sa(dp115
I0
I3
sa(dp116
I0
I3
sa(dp117
I0
I3
sa(dp118
I0
I3
sa(dp119
I0
I3
sa(dp120
I0
I3
sa(dp121
I0
I3
sa(dp122
I0
I3
sa(dp123
I0
I3
sa(dp124
I0
I3
sa(dp125
I0
I3
sa(dp126
I0
I3
sa(dp127
I0
I3
sa(dp128
I0
I3
sa(dp129
I0
I3
sa(dp130
I0
I3
sa(dp131
I0
I3
sa(dp132
I0
I3
sa(dp133
I0
I3
sa(dp134
I0
I3
sa(dp135
I0
I1
sa(dp136
I0
I3
sa(dp137
I0
I3
sa(dp138
I0
I3
sa(dp139
I0
I3
sa(dp140
I0
I3
sa(dp141
I0
I3
sa(dp142
I0
I3
sa(dp143
I0
I3
sa(dp144
I0
I3
sa(dp145
I0
I3
sa(dp146
I0
I3
sa(dp147
I0
I3
sa(dp148
I0
I3
sa(dp149
I0
I3
sa(dp150
I0
I4
sa(dp151
I0
I2
sa(dp152
I0
I4
sa(dp153
I0
I3
sa(dp154
I0
I3
sa(dp155
I0
I3
sa(dp156
I0
I3
sa(dp157
I0
I3
sa(dp158
I0
I3
sa(dp159
I0
I3
sa(dp160
I0
I3
sa(dp161
I0
I3
sa(dp162
I0
I3
sa(dp163
I0
I3
sa(dp164
I0
I3
sa(dp165
I0
I3
sa(dp166
I0
I3
sa(dp167
I0
I3
sa(dp168
I0
I3
sa(dp169
I0
I3
sa(dp170
I0
I3
sa(dp171
I0
I3
sa(dp172
I0
I3
sa(dp173
I0
I3
sa(dp174
I0
I3
sa(dp175
I0
I3
sa(dp176
I0
I3
sa(dp177
I0
I3
sa(dp178
I0
I3
sa(dp179
I0
I3
sa(dp180
I0
I3
sa(dp181
I0
I3
sa(dp182
I0
I3
sa(dp183
I0
I3
sa(dp184
I0
I3
sa(dp185
I0
I3
sa(dp186
I0
I3
sa(dp187
I0
I3
sa(dp188
I0
I3
sa(dp189
I0
I3
sa(dp190
I0
I3
sa(dp191
I0
I3
sa(dp192
I0
I3
sa(dp193
I0
I3
sa(dp194
I0
I3
sa(dp195
I0
I3
sa(dp196
I0
I3
sa(dp197
I0
I3
sa(dp198
I0
I3
sa(dp199
I0
I3
sa(dp200
I0
I3
sa(dp201
I0
I3
sa(dp202
I0
I3
sa(dp203
I0
I3
sa(dp204
I0
I3
sa(dp205
I0
I3
sa(dp206
I0
I3
sa(dp207
I0
I3
sa(dp208
I0
I3
sa(dp209
I0
I3
sa(dp210
I0
I3
sa(dp211
I0
I3
sa(dp212
I0
I3
sa(dp213
I0
I2
sa(dp214
I0
I3
sa(dp215
I0
I3
sa(dp216
I0
I3
sa(dp217
I0
I3
sa(dp218
I0
I3
sa(dp219
I0
I3
sa(dp220
I0
I3
sa(dp221
I0
I3
sa(dp222
I0
I3
sa(dp223
I0
I3
sa(dp224
I0
I3
sa(dp225
I0
I3
sa(dp226
I0
I3
sa(dp227
I0
I3
sa(dp228
I0
I3
sa(dp229
I0
I3
sa(dp230
I0
I3
sa(dp231
I0
I3
sa(dp232
I0
I3
sa(dp233
I0
I3
sa(dp234
I0
I3
sa(dp235
I0
I3
sa(dp236
I0
I3
sa(dp237
I0
I3
sa(dp238
I0
I3
sa(dp239
I0
I3
sa(dp240
I0
I3
sa(dp241
I0
I3
sa(dp242
I0
I3
sa(dp243
I0
I3
sa(dp244
I0
I3
sa(dp245
I0
I3
sa(dp246
I0
I3
sa(dp247
I0
I3
sa(dp248
I0
I3
sa(dp249
I0
I4
sa(dp250
I0
I3
sa(dp251
I0
I3
sa(dp252
I0
I3
sa(dp253
I0
I3
sa(dp254
I0
I3
sa(dp255
I0
I3
sa(dp256
I0
I3
sa(dp257
I0
I3
sa(dp258
I0
I3
sa(dp259
I0
I3
sa(dp260
I0
I3
sa(dp261
I0
I3
sa(dp262
I0
I3
sa(dp263
I0
I3
sa(dp264
I0
I3
sa(dp265
I0
I3
sa(dp266
I0
I3
sa(dp267
I0
I3
sa(dp268
I0
I3
sa(dp269
I0
I3
sa(dp270
I0
I3
sa(dp271
I0
I3
sa(dp272
I0
I3
sa(dp273
I0
I3
sa(dp274
I0
I3
sa(dp275
I0
I3
sa(dp276
I0
I3
sa(dp277
I0
I3
sa(dp278
I0
I3
sa(dp279
I0
I3
sa(dp280
I0
I3
sa(dp281
I0
I3
sa(dp282
I0
I3
sa(dp283
I0
I3
sa(dp284
I0
I3
sa(dp285
I0
I3
sa(dp286
I0
I3
sa(dp287
I0
I3
sa(dp288
I0
I3
sa(dp289
I0
I3
sa(dp290
I0
I3
sa(dp291
I0
I3
sa(dp292
I0
I3
sa(dp293
I0
I3
sa(dp294
I0
I3
sa(dp295
I0
I3
sa(dp296
I0
I3
sa(dp297
I0
I3
sa(dp298
I0
I3
sa(dp299
I0
I3
sa(dp300
I0
I3
sa(dp301
I0
I3
sa(dp302
I0
I3
sa(dp303
I0
I3
sa(dp304
I0
I3
sa(dp305
I0
I3
sa(dp306
I0
I3
sa(dp307
I0
I3
sa(dp308
I0
I3
sa(dp309
I0
I3
sa(dp310
I0
I3
sa(dp311
I0
I3
sa(dp312
I0
I3
sa(dp313
I0
I3
sa(dp314
I0
I3
sa(dp315
I0
I3
sa(dp316
I0
I3
sa(dp317
I0
I3
sa(dp318
I0
I3
sa(dp319
I0
I3
sa(dp320
I0
I3
sa(dp321
I0
I3
sa(dp322
I0
I3
sa(dp323
I0
I3
sa(dp324
I0
I3
sa(dp325
I0
I3
sa(dp326
I0
I3
sa(dp327
I0
I3
sa(dp328
I0
I3
sa(dp329
I0
I3
sa(dp330
I0
I3
sa(dp331
I0
I3
sa(dp332
I0
I3
sa(dp333
I0
I3
sa(dp334
I0
I3
sa(dp335
I0
I3
sa(dp336
I0
I3
sa(dp337
I0
I3
sa(dp338
I0
I3
sa(dp339
I0
I3
sa(dp340
I0
I1
sa(dp341
I0
I4
sa(dp342
I0
I3
sa(dp343
I0
I3
sa(dp344
I0
I3
sa(dp345
I0
I3
sa(dp346
I0
I3
sa(dp347
I0
I3
sa(dp348
I0
I3
sa(dp349
I0
I3
sa(dp350
I0
I3
sa(dp351
I0
I3
sa(dp352
I0
I3
sa(dp353
I0
I3
sa(dp354
I0
I3
sa(dp355
I0
I3
sa(dp356
I0
I3
sa(dp357
I0
I3
sa(dp358
I0
I3
sa(dp359
I0
I3
sa(dp360
I0
I3
sa(dp361
I0
I3
sa(dp362
I0
I3
sa(dp363
I0
I3
sa(dp364
I0
I3
sa(dp365
I0
I3
sa(dp366
I0
I3
sa(dp367
I0
I3
sa(dp368
I0
I3
sa(dp369
I0
I3
sa(dp370
I0
I3
sa(dp371
I0
I3
sa(dp372
I0
I3
sa(dp373
I0
I3
sa(dp374
I0
I3
sa(dp375
I0
I3
sa(dp376
I0
I3
sa(dp377
I0
I3
sa(dp378
I0
I3
sa(dp379
I0
I3
sa(dp380
I0
I4
sa(dp381
I0
I3
sa(dp382
I0
I3
sa(dp383
I0
I3
sa(dp384
I0
I3
sa(dp385
I0
I3
sa(dp386
I0
I3
sa(dp387
I0
I3
sa(dp388
I0
I3
sa(dp389
I0
I3
sa(dp390
I0
I3
sa(dp391
I0
I3
sa(dp392
I0
I3
sa(dp393
I0
I3
sa(dp394
I0
I3
sa(dp395
I0
I3
sa(dp396
I0
I3
sa(dp397
I0
I3
sa(dp398
I0
I3
sa(dp399
I0
I3
sa(dp400
I0
I3
sa(dp401
I0
I3
sa(dp402
I0
I3
sa(dp403
I0
I3
sa(dp404
I0
I3
sa(dp405
I0
I3
sa(dp406
I0
I3
sa(dp407
I0
I3
sa(dp408
I0
I3
sa(dp409
I0
I3
sa(dp410
I0
I3
sa(dp411
I0
I3
sa(dp412
I0
I3
sa(dp413
I0
I2
sa(dp414
I0
I3
sa(dp415
I0
I3
sa(dp416
I0
I3
sa(dp417
I0
I3
sa(dp418
I0
I3
sa(dp419
I0
I3
sa(dp420
I0
I3
sa(dp421
I0
I3
sa(dp422
I0
I3
sa(dp423
I0
I3
sa(dp424
I0
I3
sa(dp425
I0
I3
sa(dp426
I0
I3
sa(dp427
I0
I3
sa(dp428
I0
I3
sa(dp429
I0
I3
sa(dp430
I0
I3
sa(dp431
I0
I3
sa(dp432
I0
I3
sa(dp433
I0
I3
sa(dp434
I0
I3
sa(dp435
I0
I3
sa(dp436
I0
I3
sa(dp437
I0
I3
sa(dp438
I0
I4
sa(dp439
I0
I3
sa(dp440
I0
I3
sa(dp441
I0
I3
sa(dp442
I0
I1
sa(dp443
I0
I3
sa(dp444
I0
I3
sa(dp445
I0
I3
sa(dp446
I0
I3
sa(dp447
I0
I3
sa(dp448
I0
I3
sa(dp449
I0
I3
sa(dp450
I0
I3
sa(dp451
I0
I3
sa(dp452
I0
I3
sa(dp453
I0
I3
sa(dp454
I0
I3
sa(dp455
I0
I3
sa(dp456
I0
I3
sa(dp457
I0
I3
sa(dp458
I0
I3
sa(dp459
I0
I3
sa(dp460
I0
I3
sa(dp461
I0
I3
sa(dp462
I0
I3
sa(dp463
I0
I3
sa(dp464
I0
I3
sa(dp465
I0
I3
sa(dp466
I0
I1
sa(dp467
I0
I3
sa(dp468
I0
I3
sa(dp469
I0
I3
sa(dp470
I0
I3
sa(dp471
I0
I3
sa(dp472
I0
I3
sa(dp473
I0
I3
sa(dp474
I0
I3
sa(dp475
I0
I3
sa(dp476
I0
I3
sa(dp477
I0
I3
sa(dp478
I0
I3
sa(dp479
I0
I3
sa(dp480
I0
I3
sa(dp481
I0
I3
sa(dp482
I0
I2
sa(dp483
I0
I3
sa(dp484
I0
I3
sa(dp485
I0
I3
sa(dp486
I0
I3
sa(dp487
I0
I3
sa(dp488
I0
I3
sa(dp489
I0
I3
sa(dp490
I0
I3
sa(dp491
I0
I3
sa(dp492
I0
I3
sa(dp493
I0
I3
sa(dp494
I0
I3
sa(dp495
I0
I3
sa(dp496
I0
I3
sa(dp497
I0
I3
sa(dp498
I0
I3
sa(dp499
I0
I3
sa(dp500
I0
I3
sa(dp501
I0
I3
sa(dp502
I0
I3
sa(dp503
I0
I3
sa(dp504
I0
I3
sa(dp505
I0
I3
sa(dp506
I0
I3
sa(dp507
I0
I3
sa(dp508
I0
I3
sa(dp509
I0
I3
sa(dp510
I0
I3
sa(dp511
I0
I2
sa(dp512
I0
I3
sa(dp513
I0
I3
sa(dp514
I0
I3
sa(dp515
I0
I3
sa(dp516
I0
I3
sa(dp517
I0
I3
sa(dp518
I0
I3
sa(dp519
I0
I2
sa(dp520
I0
I3
sa(dp521
I0
I3
sa(dp522
I0
I3
sa(dp523
I0
I3
sa(dp524
I0
I3
sa(dp525
I0
I3
sa(dp526
I0
I3
sa(dp527
I0
I3
sa(dp528
I0
I3
sa(dp529
I0
I3
sa(dp530
I0
I3
sa(dp531
I0
I3
sa(dp532
I0
I3
sa(dp533
I0
I3
sa(dp534
I0
I3
sa(dp535
I0
I3
sa(dp536
I0
I3
sa(dp537
I0
I3
sa(dp538
I0
I3
sa(dp539
I0
I3
sa(dp540
I0
I3
sa(dp541
I0
I3
sa(dp542
I0
I3
sa(dp543
I0
I3
sa(dp544
I0
I3
sa(dp545
I0
I3
sa(dp546
I0
I3
sa(dp547
I0
I3
sa(dp548
I0
I3
sa(dp549
I0
I3
sa(dp550
I0
I3
sa(dp551
I0
I3
sa(dp552
I0
I3
sa(dp553
I0
I3
sa(dp554
I0
I3
sa(dp555
I0
I3
sa(dp556
I0
I3
sa(dp557
I0
I3
sa(dp558
I0
I3
sa(dp559
I0
I3
sa(dp560
I0
I3
sa(dp561
I0
I3
sa(dp562
I0
I3
sa(dp563
I0
I3
sa(dp564
I0
I3
sa(dp565
I0
I3
sa(dp566
I0
I3
sa(dp567
I0
I3
sa(dp568
I0
I3
sa(dp569
I0
I3
sa(dp570
I0
I3
sa(dp571
I0
I3
sa(dp572
I0
I3
sa(dp573
I0
I3
sa(dp574
I0
I3
sa(dp575
I0
I3
sa(dp576
I0
I3
sa(dp577
I0
I3
sa(dp578
I0
I3
sa(dp579
I0
I3
sa(dp580
I0
I3
sa(dp581
I0
I3
sa(dp582
I0
I3
sa(dp583
I0
I3
sa(dp584
I0
I3
sa(dp585
I0
I3
sa(dp586
I0
I3
sa(dp587
I0
I3
sa(dp588
I0
I3
sa(dp589
I0
I3
sa(dp590
I0
I3
sa(dp591
I0
I3
sa(dp592
I0
I3
sa(dp593
I0
I4
sa(dp594
I0
I3
sa(dp595
I0
I3
sa(dp596
I0
I3
sa(dp597
I0
I3
sa(dp598
I0
I3
sa(dp599
I0
I3
sa(dp600
I0
I3
sa(dp601
I0
I3
sa(dp602
I0
I3
sa(dp603
I0
I3
sa(dp604
I0
I3
sa(dp605
I0
I3
sa(dp606
I0
I3
sa(dp607
I0
I3
sa(dp608
I0
I3
sa(dp609
I0
I3
sa(dp610
I0
I1
sa(dp611
I0
I4
sa(dp612
I0
I3
sa(dp613
I0
I3
sa(dp614
I0
I3
sa(dp615
I0
I3
sa(dp616
I0
I3
sa(dp617
I0
I3
sa(dp618
I0
I3
sa(dp619
I0
I3
sa(dp620
I0
I3
sa(dp621
I0
I3
sa(dp622
I0
I3
sa(dp623
I0
I3
sa(dp624
I0
I3
sa(dp625
I0
I3
sa(dp626
I0
I3
sa(dp627
I0
I3
sa(dp628
I0
I3
sa(dp629
I0
I3
sa(dp630
I0
I3
sa(dp631
I0
I3
sa(dp632
I0
I3
sa(dp633
I0
I3
sa(dp634
I0
I1
sa(dp635
I0
I3
sa(dp636
I0
I3
sa(dp637
I0
I3
sa(dp638
I0
I3
sa(dp639
I0
I3
sa(dp640
I0
I3
sa(dp641
I0
I3
sa(dp642
I0
I3
sa(dp643
I0
I3
sa(dp644
I0
I3
sa(dp645
I0
I3
sa(dp646
I0
I2
sa(dp647
I0
I3
sa(dp648
I0
I3
sa(dp649
I0
I3
sa(dp650
I0
I3
sa(dp651
I0
I3
sa(dp652
I0
I3
sa(dp653
I0
I3
sa(dp654
I0
I3
sa(dp655
I0
I3
sa(dp656
I0
I3
sa(dp657
I0
I3
sa(dp658
I0
I3
sa(dp659
I0
I3
sa(dp660
I0
I3
sa(dp661
I0
I3
sa(dp662
I0
I3
sa(dp663
I0
I3
sa(dp664
I0
I3
sa(dp665
I0
I3
sa(dp666
I0
I3
sa(dp667
I0
I3
sa(dp668
I0
I3
sa(dp669
I0
I3
sa(dp670
I0
I3
sa(dp671
I0
I4
sa(dp672
I0
I1
sa(dp673
I0
I3
sa(dp674
I0
I3
sa(dp675
I0
I3
sa(dp676
I0
I3
sa(dp677
I0
I3
sa(dp678
I0
I3
sa(dp679
I0
I3
sa(dp680
I0
I3
sa(dp681
I0
I3
sa(dp682
I0
I3
sa(dp683
I0
I3
sa(dp684
I0
I3
sa(dp685
I0
I3
sa(dp686
I0
I3
sa(dp687
I0
I3
sa(dp688
I0
I3
sa(dp689
I0
I3
sa(dp690
I0
I3
sa(dp691
I0
I3
sa(dp692
I0
I3
sa(dp693
I0
I3
sa(dp694
I0
I3
sa(dp695
I0
I3
sa(dp696
I0
I3
sa(dp697
I0
I3
sa(dp698
I0
I3
sa(dp699
I0
I3
sa(dp700
I0
I3
sa(dp701
I0
I3
sa(dp702
I0
I3
sa(dp703
I0
I3
sa(dp704
I0
I3
sa(dp705
I0
I3
sa(dp706
I0
I3
sa(dp707
I0
I3
sa(dp708
I0
I3
sa(dp709
I0
I1
sa(dp710
I0
I1
sa(dp711
I0
I3
sa(dp712
I0
I3
sa(dp713
I0
I3
sa(dp714
I0
I4
sa(dp715
I0
I3
sa(dp716
I0
I3
sa(dp717
I0
I1
sa(dp718
I0
I3
sa(dp719
I0
I3
sa(dp720
I0
I3
sa(dp721
I0
I3
sa(dp722
I0
I3
sa(dp723
I0
I3
sa(dp724
I0
I3
sa(dp725
I0
I3
sa(dp726
I0
I3
sa(dp727
I0
I3
sa(dp728
I0
I3
sa(dp729
I0
I3
sa(dp730
I0
I3
sa(dp731
I0
I3
sa(dp732
I0
I3
sa(dp733
I0
I3
sa(dp734
I0
I3
sa(dp735
I0
I3
sa(dp736
I0
I3
sa(dp737
I0
I3
sa(dp738
I0
I3
sa(dp739
I0
I3
sa(dp740
I0
I3
sa(dp741
I0
I3
sa(dp742
I0
I3
sa(dp743
I0
I3
sa(dp744
I0
I3
sa(dp745
I0
I3
sa(dp746
I0
I3
sa(dp747
I0
I3
sa(dp748
I0
I3
sa(dp749
I0
I3
sa(dp750
I0
I3
sa(dp751
I0
I3
sa(dp752
I0
I3
sa(dp753
I0
I3
sa(dp754
I0
I3
sa(dp755
I0
I3
sa(dp756
I0
I3
sa(dp757
I0
I3
sa(dp758
I0
I3
sa(dp759
I0
I3
sa(dp760
I0
I3
sa(dp761
I0
I3
sa(dp762
I0
I3
sa(dp763
I0
I3
sa(dp764
I0
I3
sa(dp765
I0
I3
sa(dp766
I0
I3
sa(dp767
I0
I3
sa(dp768
I0
I3
sa(dp769
I0
I3
sa(dp770
I0
I3
sa(dp771
I0
I3
sa(dp772
I0
I3
sa(dp773
I0
I3
sa(dp774
I0
I3
sa(dp775
I0
I3
sa(dp776
I0
I3
sa(dp777
I0
I3
sa(dp778
I0
I3
sa(dp779
I0
I3
sa(dp780
I0
I3
sa(dp781
I0
I3
sa(dp782
I0
I3
sa(dp783
I0
I1
sa(dp784
I0
I3
sa(dp785
I0
I3
sa(dp786
I0
I3
sa(dp787
I0
I3
sa(dp788
I0
I3
sa(dp789
I0
I3
sa(dp790
I0
I3
sa(dp791
I0
I3
sa(dp792
I0
I3
sa(dp793
I0
I3
sa(dp794
I0
I3
sa(dp795
I0
I3
sa(dp796
I0
I3
sa(dp797
I0
I3
sa(dp798
I0
I3
sa(dp799
I0
I3
sa(dp800
I0
I3
sa(dp801
I0
I3
sa(dp802
I0
I3
sa(dp803
I0
I3
sa(dp804
I0
I3
sa(dp805
I0
I3
sa(dp806
I0
I3
sa(dp807
I0
I3
sa(dp808
I0
I3
sa(dp809
I0
I3
sa(dp810
I0
I3
sa(dp811
I0
I3
sa(dp812
I0
I3
sa(dp813
I0
I3
sa(dp814
I0
I3
sa(dp815
I0
I3
sa(dp816
I0
I3
sa(dp817
I0
I3
sa(dp818
I0
I3
sa(dp819
I0
I3
sa(dp820
I0
I3
sa(dp821
I0
I3
sa(dp822
I0
I4
sa(dp823
I0
I3
sa(dp824
I0
I3
sa(dp825
I0
I3
sa(dp826
I0
I3
sa(dp827
I0
I3
sa(dp828
I0
I3
sa(dp829
I0
I3
sa(dp830
I0
I3
sa(dp831
I0
I3
sa(dp832
I0
I3
sa(dp833
I0
I3
sa(dp834
I0
I3
sa(dp835
I0
I3
sa(dp836
I0
I3
sa(dp837
I0
I3
sa(dp838
I0
I3
sa(dp839
I0
I3
sa(dp840
I0
I2
sa(dp841
I0
I3
sa(dp842
I0
I3
sa(dp843
I0
I3
sa(dp844
I0
I3
sa(dp845
I0
I3
sa(dp846
I0
I3
sa(dp847
I0
I3
sa(dp848
I0
I3
sa(dp849
I0
I3
sa(dp850
I0
I3
sa(dp851
I0
I3
sa(dp852
I0
I3
sa(dp853
I0
I3
sa(dp854
I0
I3
sa(dp855
I0
I3
sa(dp856
I0
I3
sa(dp857
I0
I3
sa(dp858
I0
I3
sa(dp859
I0
I3
sa(dp860
I0
I3
sa(dp861
I0
I3
sa(dp862
I0
I3
sa(dp863
I0
I3
sa(dp864
I0
I3
sa(dp865
I0
I3
sa(dp866
I0
I3
sa(dp867
I0
I4
sa(dp868
I0
I3
sa(dp869
I0
I3
sa(dp870
I0
I3
sa(dp871
I0
I3
sa(dp872
I0
I3
sa(dp873
I0
I3
sa(dp874
I0
I3
sa(dp875
I0
I3
sa(dp876
I0
I3
sa(dp877
I0
I3
sa(dp878
I0
I3
sa(dp879
I0
I3
sa(dp880
I0
I3
sa(dp881
I0
I3
sa(dp882
I0
I3
sa(dp883
I0
I3
sa(dp884
I0
I4
sa(dp885
I0
I3
sa(dp886
I0
I3
sa(dp887
I0
I3
sa(dp888
I0
I3
sa(dp889
I0
I3
sa(dp890
I0
I3
sa(dp891
I0
I3
sa(dp892
I0
I3
sa(dp893
I0
I3
sa(dp894
I0
I3
sa(dp895
I0
I3
sa(dp896
I0
I3
sa(dp897
I0
I3
sa(dp898
I0
I3
sa(dp899
I0
I3
sa(dp900
I0
I3
sa(dp901
I0
I3
sa(dp902
I0
I3
sa(dp903
I0
I3
sa(dp904
I0
I3
sa(dp905
I0
I3
sa(dp906
I0
I2
sa(dp907
I0
I2
sa(dp908
I0
I3
sa(dp909
I0
I3
sa(dp910
I0
I3
sa(dp911
I0
I3
sa(dp912
I0
I3
sa(dp913
I0
I3
sa(dp914
I0
I3
sa(dp915
I0
I3
sa(dp916
I0
I3
sa(dp917
I0
I3
sa(dp918
I0
I3
sa(dp919
I0
I3
sa(dp920
I0
I3
sa(dp921
I0
I3
sa(dp922
I0
I3
sa(dp923
I0
I3
sa(dp924
I0
I3
sa(dp925
I0
I3
sa(dp926
I0
I3
sa(dp927
I0
I3
sa(dp928
I0
I3
sa(dp929
I0
I3
sa(dp930
I0
I3
sa(dp931
I0
I3
sa(dp932
I0
I3
sa(dp933
I0
I3
sa(dp934
I0
I3
sa(dp935
I0
I3
sa(dp936
I0
I3
sa(dp937
I0
I3
sa(dp938
I0
I3
sa(dp939
I0
I3
sa(dp940
I0
I3
sa(dp941
I0
I3
sa(dp942
I0
I3
sa(dp943
I0
I3
sa(dp944
I0
I3
sa(dp945
I0
I4
sa(dp946
I0
I3
sa(dp947
I0
I3
sa(dp948
I0
I3
sa(dp949
I0
I3
sa(dp950
I0
I3
sa(dp951
I0
I3
sa(dp952
I0
I3
sa(dp953
I0
I3
sa(dp954
I0
I3
sa(dp955
I0
I3
sa(dp956
I0
I3
sa(dp957
I0
I1
sa(dp958
I0
I3
sa(dp959
I0
I3
sa(dp960
I0
I3
sa(dp961
I0
I3
sa(dp962
I0
I4
sa(dp963
I0
I3
sa(dp964
I0
I3
sa(dp965
I0
I3
sa(dp966
I0
I3
sa(dp967
I0
I3
sa(dp968
I0
I3
sa(dp969
I0
I3
sa(dp970
I0
I3
sa(dp971
I0
I3
sa(dp972
I0
I3
sa(dp973
I0
I3
sa(dp974
I0
I3
sa(dp975
I0
I2
sa(dp976
I0
I3
sa(dp977
I0
I3
sa(dp978
I0
I3
sa(dp979
I0
I3
sa(dp980
I0
I3
sa(dp981
I0
I3
sa(dp982
I0
I3
sa(dp983
I0
I1
sa(dp984
I0
I3
sa(dp985
I0
I3
sa(dp986
I0
I3
sa(dp987
I0
I3
sa(dp988
I0
I3
sa(dp989
I0
I3
sa(dp990
I0
I3
sa(dp991
I0
I3
sa(dp992
I0
I3
sa(dp993
I0
I3
sa(dp994
I0
I3
sa(dp995
I0
I3
sa(dp996
I0
I3
sa(dp997
I0
I3
sa(dp998
I0
I3
sa(dp999
I0
I3
sa(dp1000
I0
I3
sa(dp1001
I0
I3
sa(dp1002
I0
I3
sa(dp1003
I0
I3
sa(dp1004
I0
I3
sa(dp1005
I0
I3
sa(dp1006
I0
I3
sa(dp1007
I0
I3
sa(dp1008
I0
I3
sa(dp1009
I0
I4
sa(dp1010
I0
I3
sa(dp1011
I0
I4
sa(dp1012
I0
I3
sa(dp1013
I0
I3
sa(dp1014
I0
I4
sa(dp1015
I0
I3
sa(dp1016
I0
I3
sa(dp1017
I0
I3
sa(dp1018
I0
I3
sa(dp1019
I0
I3
sa(dp1020
I0
I3
sa(dp1021
I0
I3
sa(dp1022
I0
I3
sa(dp1023
I0
I3
sa(dp1024
I0
I1
sa(dp1025
I0
I3
sa(dp1026
I0
I3
sa(dp1027
I0
I3
sa(dp1028
I0
I3
sa(dp1029
I0
I3
sa(dp1030
I0
I3
sa(dp1031
I0
I3
sa(dp1032
I0
I3
sa(dp1033
I0
I3
sa(dp1034
I0
I3
sa(dp1035
I0
I3
sa(dp1036
I0
I3
sa(dp1037
I0
I3
sa(dp1038
I0
I3
sa(dp1039
I0
I3
sa(dp1040
I0
I3
sa(dp1041
I0
I3
sa(dp1042
I0
I3
sa(dp1043
I0
I3
sa(dp1044
I0
I3
sa(dp1045
I0
I3
sa(dp1046
I0
I3
sa(dp1047
I0
I3
sa(dp1048
I0
I3
sa(dp1049
I0
I3
sa(dp1050
I0
I3
sa(dp1051
I0
I3
sa(dp1052
I0
I3
sa(dp1053
I0
I3
sa(dp1054
I0
I3
sa(dp1055
I0
I3
sa(dp1056
I0
I3
sa(dp1057
I0
I2
sa(dp1058
I0
I3
sa(dp1059
I0
I3
sa(dp1060
I0
I3
sa(dp1061
I0
I3
sa(dp1062
I0
I3
sa(dp1063
I0
I3
sa(dp1064
I0
I4
sa(dp1065
I0
I3
sa(dp1066
I0
I3
sa(dp1067
I0
I3
sa(dp1068
I0
I3
sa(dp1069
I0
I3
sa(dp1070
I0
I3
sa(dp1071
I0
I3
sa(dp1072
I0
I3
sa(dp1073
I0
I3
sa(dp1074
I0
I3
sa(dp1075
I0
I3
sa(dp1076
I0
I3
sa(dp1077
I0
I3
sa(dp1078
I0
I3
sa(dp1079
I0
I4
sa(dp1080
I0
I4
sa(dp1081
I0
I3
sa(dp1082
I0
I3
sa(dp1083
I0
I3
sa(dp1084
I0
I3
sa(dp1085
I0
I3
sa(dp1086
I0
I3
sa(dp1087
I0
I3
sa(dp1088
I0
I3
sa(dp1089
I0
I3
sa(dp1090
I0
I3
sa(dp1091
I0
I3
sa(dp1092
I0
I3
sa(dp1093
I0
I3
sa(dp1094
I0
I3
sa(dp1095
I0
I3
sa(dp1096
I0
I3
sa(dp1097
I0
I3
sa(dp1098
I0
I3
sa(dp1099
I0
I3
sa(dp1100
I0
I3
sa(dp1101
I0
I3
sa(dp1102
I0
I3
sa(dp1103
I0
I3
sa(dp1104
I0
I1
sa(dp1105
I0
I3
sa(dp1106
I0
I3
sa(dp1107
I0
I3
sa(dp1108
I0
I1
sa(dp1109
I0
I3
sa(dp1110
I0
I3
sa(dp1111
I0
I3
sa(dp1112
I0
I3
sa(dp1113
I0
I3
sa(dp1114
I0
I3
sa(dp1115
I0
I3
sa(dp1116
I0
I3
sa(dp1117
I0
I3
sa(dp1118
I0
I3
sa(dp1119
I0
I3
sa(dp1120
I0
I3
sa(dp1121
I0
I3
sa(dp1122
I0
I3
sa(dp1123
I0
I3
sa(dp1124
I0
I3
sa(dp1125
I0
I3
sa(dp1126
I0
I3
sa(dp1127
I0
I3
sa(dp1128
I0
I3
sa(dp1129
I0
I3
sa(dp1130
I0
I3
sa(dp1131
I0
I3
sa(dp1132
I0
I3
sa(dp1133
I0
I3
sa(dp1134
I0
I3
sa(dp1135
I0
I3
sa(dp1136
I0
I3
sa(dp1137
I0
I3
sa(dp1138
I0
I3
sa(dp1139
I0
I3
sa(dp1140
I0
I3
sa(dp1141
I0
I3
sa(dp1142
I0
I3
sa(dp1143
I0
I3
sa(dp1144
I0
I3
sa(dp1145
I0
I3
sa(dp1146
I0
I3
sa(dp1147
I0
I3
sa(dp1148
I0
I3
sa(dp1149
I0
I3
sa(dp1150
I0
I3
sa(dp1151
I0
I3
sa(dp1152
I0
I1
sa(dp1153
I0
I3
sa(dp1154
I0
I3
sa(dp1155
I0
I3
sa(dp1156
I0
I3
sa(dp1157
I0
I3
sa(dp1158
I0
I3
sa(dp1159
I0
I3
sa(dp1160
I0
I3
sa(dp1161
I0
I3
sa(dp1162
I0
I3
sa(dp1163
I0
I3
sa(dp1164
I0
I3
sa(dp1165
I0
I3
sa(dp1166
I0
I3
sa.